target datalayout = "e-m:e-p270:32:32-p271:32:32-p272:64:64-i64:64-i128:128-f80:128-n8:16:32:64-S128"
target triple = "x86_64-pc-linux-gnu"

%struct.step_record_t = type { i32, ptr, ptr, ptr, i32, ptr, ptr, i32, i32, i32, i32, i16, i16, ptr, i16, i32, ptr, i32, ptr, ptr, ptr, ptr, ptr, ptr, ptr, ptr, ptr, i64, i16, i64, i16, ptr, i16, ptr, i32, i64, i32, ptr, i32, i32, %struct.slurm_step_id_msg, ptr, ptr, ptr, ptr, i16, i64, i64, ptr, ptr, ptr, ptr, ptr, ptr, ptr, ptr }
%struct.slurm_step_id_msg = type { i64, i32, i32, i32 }
%struct.slurm_step_layout = type { ptr, i32, ptr, ptr, ptr, i32, ptr, i16, i16, ptr, i32, i32, ptr }
%struct.job_record = type { i32, ptr, ptr, ptr, ptr, i16, i32, i32, i32, ptr, i32, ptr, ptr, i16, ptr, double, i64, ptr, ptr, ptr, ptr, ptr, ptr, i32, ptr, i32, i64, i64, i32, i32, ptr, i16, i64, i64, i8, i32, ptr, ptr, ptr, ptr, ptr, ptr, ptr, ptr, i32, ptr, ptr, i32, ptr, i32, ptr, i32, ptr, i32, ptr, ptr, ptr, ptr, ptr, ptr, i32, i16, i64, ptr, ptr, ptr, ptr, %struct.acct_policy_limit_set_t, i16, ptr, ptr, ptr, ptr, ptr, i32, ptr, ptr, ptr, ptr, ptr, i32, i32, ptr, ptr, ptr, i16, ptr, ptr, i8, ptr, ptr, i64, i64, i8, i32, i32, i8, i32, ptr, i32, i64, i32, ptr, ptr, ptr, i8, i16, i64, i32, ptr, ptr, ptr, ptr, ptr, i16, i32, ptr, ptr, ptr, ptr, i32, ptr, i32, i16, i64, ptr, i32, i32, ptr, i64, ptr, ptr, i64, i32, i32, i64, i32, i32, ptr, ptr, ptr, ptr, ptr, ptr, ptr, ptr, ptr, ptr, ptr, ptr, i32, ptr, i16, i16, i16, i16, ptr, i32, i32, i8, i64 }
%struct.acct_policy_limit_set_t = type { i16, i16, ptr }
%struct.job_details_t = type { i32, ptr, i64, ptr, i32, ptr, i64, ptr, i16, i16, ptr, i16, i32, i32, i32, i16, ptr, i16, ptr, ptr, ptr, i16, ptr, ptr, ptr, ptr, i32, ptr, ptr, ptr, ptr, ptr, i32, i32, i32, ptr, ptr, i16, i32, i32, i32, i32, i32, i32, i16, i16, i32, i8, i8, i32, i32, i64, i64, i16, i32, ptr, ptr, i8, ptr, i32, ptr, i64, ptr, ptr, i16, i16, i16, i8, ptr, ptr, ptr, ptr, ptr, ptr, i64, i32, i32, i8, ptr, i16, ptr, ptr, i16 }
%struct.dbd_step_comp_msg = type { i32, i64, i64, i32, ptr, i64, ptr, i32, i64, i16, %struct.slurm_step_id_msg, i32 }

@.str.66 = private unnamed_addr constant [79 x i8] c"jobacct_storage_p_step_complete: Not inputing this job, it has no submit time.\00", align 1

; Function Attrs: nounwind uwtable
define dso_local i32 @as_build_step_comp_msg(ptr noundef %0, ptr noundef %1) #0 {
  %3 = alloca i32, align 4
  %4 = alloca ptr, align 8
  %5 = alloca ptr, align 8
  %6 = alloca i32, align 4
  %7 = alloca i32, align 4
  store ptr %0, ptr %4, align 8
  store ptr %1, ptr %5, align 8
  call void @llvm.lifetime.start.p0(i64 4, ptr %6) #8
  store i32 0, ptr %6, align 4
  %8 = load ptr, ptr %5, align 8
  %9 = getelementptr inbounds nuw %struct.step_record_t, ptr %8, i32 0, i32 40
  %10 = getelementptr inbounds nuw %struct.slurm_step_id_msg, ptr %9, i32 0, i32 3
  %11 = load i32, ptr %10, align 8
  %12 = icmp eq i32 %11, -5
  br i1 %12, label %13, label %14

13:                                               ; preds = %2
  store i32 1, ptr %6, align 4
  br label %39

14:                                               ; preds = %2
  %15 = load ptr, ptr %5, align 8
  %16 = getelementptr inbounds nuw %struct.step_record_t, ptr %15, i32 0, i32 41
  %17 = load ptr, ptr %16, align 8
  %18 = icmp ne ptr %17, null
  br i1 %18, label %19, label %26

19:                                               ; preds = %14
  %20 = load ptr, ptr %5, align 8
  %21 = getelementptr inbounds nuw %struct.step_record_t, ptr %20, i32 0, i32 41
  %22 = load ptr, ptr %21, align 8
  %23 = getelementptr inbounds nuw %struct.slurm_step_layout, ptr %22, i32 0, i32 10
  %24 = load i32, ptr %23, align 8
  %25 = icmp ne i32 %24, 0
  br i1 %25, label %32, label %26

26:                                               ; preds = %19, %14
  %27 = load ptr, ptr %5, align 8
  %28 = getelementptr inbounds nuw %struct.step_record_t, ptr %27, i32 0, i32 21
  %29 = load ptr, ptr %28, align 8
  %30 = getelementptr inbounds nuw %struct.job_record, ptr %29, i32 0, i32 136
  %31 = load i32, ptr %30, align 8
  store i32 %31, ptr %6, align 4
  br label %38

32:                                               ; preds = %19
  %33 = load ptr, ptr %5, align 8
  %34 = getelementptr inbounds nuw %struct.step_record_t, ptr %33, i32 0, i32 41
  %35 = load ptr, ptr %34, align 8
  %36 = getelementptr inbounds nuw %struct.slurm_step_layout, ptr %35, i32 0, i32 10
  %37 = load i32, ptr %36, align 8
  store i32 %37, ptr %6, align 4
  br label %38

38:                                               ; preds = %32, %26
  br label %39

39:                                               ; preds = %38, %13
  %40 = load ptr, ptr %5, align 8
  %41 = getelementptr inbounds nuw %struct.step_record_t, ptr %40, i32 0, i32 21
  %42 = load ptr, ptr %41, align 8
  %43 = getelementptr inbounds nuw %struct.job_record, ptr %42, i32 0, i32 26
  %44 = load i64, ptr %43, align 8
  %45 = icmp ne i64 %44, 0
  br i1 %45, label %71, label %46

46:                                               ; preds = %39
  %47 = load ptr, ptr %5, align 8
  %48 = getelementptr inbounds nuw %struct.step_record_t, ptr %47, i32 0, i32 21
  %49 = load ptr, ptr %48, align 8
  %50 = getelementptr inbounds nuw %struct.job_record, ptr %49, i32 0, i32 30
  %51 = load ptr, ptr %50, align 8
  %52 = icmp ne ptr %51, null
  br i1 %52, label %53, label %62

53:                                               ; preds = %46
  %54 = load ptr, ptr %5, align 8
  %55 = getelementptr inbounds nuw %struct.step_record_t, ptr %54, i32 0, i32 21
  %56 = load ptr, ptr %55, align 8
  %57 = getelementptr inbounds nuw %struct.job_record, ptr %56, i32 0, i32 30
  %58 = load ptr, ptr %57, align 8
  %59 = getelementptr inbounds nuw %struct.job_details_t, ptr %58, i32 0, i32 74
  %60 = load i64, ptr %59, align 8
  %61 = icmp ne i64 %60, 0
  br i1 %61, label %71, label %62

62:                                               ; preds = %53, %46
  %63 = load ptr, ptr %5, align 8
  %64 = getelementptr inbounds nuw %struct.step_record_t, ptr %63, i32 0, i32 21
  %65 = load ptr, ptr %64, align 8
  %66 = getelementptr inbounds nuw %struct.job_record, ptr %65, i32 0, i32 107
  %67 = load i64, ptr %66, align 8
  %68 = icmp ne i64 %67, 0
  br i1 %68, label %71, label %69

69:                                               ; preds = %62
  %70 = call i32 (ptr, ...) @slurm_error(ptr noundef @.str.66)
  store i32 -1, ptr %3, align 4
  store i32 1, ptr %7, align 4
  br label %191

71:                                               ; preds = %62, %53, %39
  %72 = load ptr, ptr %4, align 8
  call void @llvm.memset.p0.i64(ptr align 8 %72, i8 0, i64 112, i1 false)
  %73 = load ptr, ptr %5, align 8
  %74 = getelementptr inbounds nuw %struct.step_record_t, ptr %73, i32 0, i32 21
  %75 = load ptr, ptr %74, align 8
  %76 = getelementptr inbounds nuw %struct.job_record, ptr %75, i32 0, i32 10
  %77 = load i32, ptr %76, align 8
  %78 = load ptr, ptr %4, align 8
  %79 = getelementptr inbounds nuw %struct.dbd_step_comp_msg, ptr %78, i32 0, i32 0
  store i32 %77, ptr %79, align 8
  %80 = load ptr, ptr %5, align 8
  %81 = getelementptr inbounds nuw %struct.step_record_t, ptr %80, i32 0, i32 21
  %82 = load ptr, ptr %81, align 8
  %83 = getelementptr inbounds nuw %struct.job_record, ptr %82, i32 0, i32 26
  %84 = load i64, ptr %83, align 8
  %85 = load ptr, ptr %4, align 8
  %86 = getelementptr inbounds nuw %struct.dbd_step_comp_msg, ptr %85, i32 0, i32 1
  store i64 %84, ptr %86, align 8
  %87 = call i64 @time(ptr noundef null) #8
  %88 = load ptr, ptr %4, align 8
  %89 = getelementptr inbounds nuw %struct.dbd_step_comp_msg, ptr %88, i32 0, i32 2
  store i64 %87, ptr %89, align 8
  %90 = load ptr, ptr %5, align 8
  %91 = getelementptr inbounds nuw %struct.step_record_t, ptr %90, i32 0, i32 15
  %92 = load i32, ptr %91, align 4
  %93 = load ptr, ptr %4, align 8
  %94 = getelementptr inbounds nuw %struct.dbd_step_comp_msg, ptr %93, i32 0, i32 3
  store i32 %92, ptr %94, align 8
  %95 = load ptr, ptr %5, align 8
  %96 = getelementptr inbounds nuw %struct.step_record_t, ptr %95, i32 0, i32 22
  %97 = load ptr, ptr %96, align 8
  %98 = load ptr, ptr %4, align 8
  %99 = getelementptr inbounds nuw %struct.dbd_step_comp_msg, ptr %98, i32 0, i32 4
  store ptr %97, ptr %99, align 8
  %100 = load ptr, ptr %5, align 8
  %101 = getelementptr inbounds nuw %struct.step_record_t, ptr %100, i32 0, i32 34
  %102 = load i32, ptr %101, align 8
  %103 = load ptr, ptr %4, align 8
  %104 = getelementptr inbounds nuw %struct.dbd_step_comp_msg, ptr %103, i32 0, i32 7
  store i32 %102, ptr %104, align 8
  %105 = load ptr, ptr %5, align 8
  %106 = getelementptr inbounds nuw %struct.step_record_t, ptr %105, i32 0, i32 35
  %107 = load i64, ptr %106, align 8
  %108 = load ptr, ptr %5, align 8
  %109 = getelementptr inbounds nuw %struct.step_record_t, ptr %108, i32 0, i32 21
  %110 = load ptr, ptr %109, align 8
  %111 = getelementptr inbounds nuw %struct.job_record, ptr %110, i32 0, i32 107
  %112 = load i64, ptr %111, align 8
  %113 = icmp sgt i64 %107, %112
  br i1 %113, label %114, label %120

114:                                              ; preds = %71
  %115 = load ptr, ptr %5, align 8
  %116 = getelementptr inbounds nuw %struct.step_record_t, ptr %115, i32 0, i32 35
  %117 = load i64, ptr %116, align 8
  %118 = load ptr, ptr %4, align 8
  %119 = getelementptr inbounds nuw %struct.dbd_step_comp_msg, ptr %118, i32 0, i32 8
  store i64 %117, ptr %119, align 8
  br label %128

120:                                              ; preds = %71
  %121 = load ptr, ptr %5, align 8
  %122 = getelementptr inbounds nuw %struct.step_record_t, ptr %121, i32 0, i32 21
  %123 = load ptr, ptr %122, align 8
  %124 = getelementptr inbounds nuw %struct.job_record, ptr %123, i32 0, i32 107
  %125 = load i64, ptr %124, align 8
  %126 = load ptr, ptr %4, align 8
  %127 = getelementptr inbounds nuw %struct.dbd_step_comp_msg, ptr %126, i32 0, i32 8
  store i64 %125, ptr %127, align 8
  br label %128

128:                                              ; preds = %120, %114
  %129 = load ptr, ptr %5, align 8
  %130 = getelementptr inbounds nuw %struct.step_record_t, ptr %129, i32 0, i32 21
  %131 = load ptr, ptr %130, align 8
  %132 = getelementptr inbounds nuw %struct.job_record, ptr %131, i32 0, i32 107
  %133 = load i64, ptr %132, align 8
  %134 = icmp ne i64 %133, 0
  br i1 %134, label %135, label %143

135:                                              ; preds = %128
  %136 = load ptr, ptr %5, align 8
  %137 = getelementptr inbounds nuw %struct.step_record_t, ptr %136, i32 0, i32 21
  %138 = load ptr, ptr %137, align 8
  %139 = getelementptr inbounds nuw %struct.job_record, ptr %138, i32 0, i32 107
  %140 = load i64, ptr %139, align 8
  %141 = load ptr, ptr %4, align 8
  %142 = getelementptr inbounds nuw %struct.dbd_step_comp_msg, ptr %141, i32 0, i32 5
  store i64 %140, ptr %142, align 8
  br label %161

143:                                              ; preds = %128
  %144 = load ptr, ptr %5, align 8
  %145 = getelementptr inbounds nuw %struct.step_record_t, ptr %144, i32 0, i32 21
  %146 = load ptr, ptr %145, align 8
  %147 = getelementptr inbounds nuw %struct.job_record, ptr %146, i32 0, i32 30
  %148 = load ptr, ptr %147, align 8
  %149 = icmp ne ptr %148, null
  br i1 %149, label %150, label %160

150:                                              ; preds = %143
  %151 = load ptr, ptr %5, align 8
  %152 = getelementptr inbounds nuw %struct.step_record_t, ptr %151, i32 0, i32 21
  %153 = load ptr, ptr %152, align 8
  %154 = getelementptr inbounds nuw %struct.job_record, ptr %153, i32 0, i32 30
  %155 = load ptr, ptr %154, align 8
  %156 = getelementptr inbounds nuw %struct.job_details_t, ptr %155, i32 0, i32 74
  %157 = load i64, ptr %156, align 8
  %158 = load ptr, ptr %4, align 8
  %159 = getelementptr inbounds nuw %struct.dbd_step_comp_msg, ptr %158, i32 0, i32 5
  store i64 %157, ptr %159, align 8
  br label %160

160:                                              ; preds = %150, %143
  br label %161

161:                                              ; preds = %160, %135
  %162 = load ptr, ptr %5, align 8
  %163 = getelementptr inbounds nuw %struct.step_record_t, ptr %162, i32 0, i32 21
  %164 = load ptr, ptr %163, align 8
  %165 = getelementptr inbounds nuw %struct.job_record, ptr %164, i32 0, i32 16
  %166 = load i64, ptr %165, align 8
  %167 = and i64 %166, 2048
  %168 = icmp ne i64 %167, 0
  br i1 %168, label %169, label %177

169:                                              ; preds = %161
  %170 = load ptr, ptr %5, align 8
  %171 = getelementptr inbounds nuw %struct.step_record_t, ptr %170, i32 0, i32 21
  %172 = load ptr, ptr %171, align 8
  %173 = getelementptr inbounds nuw %struct.job_record, ptr %172, i32 0, i32 148
  %174 = load ptr, ptr %173, align 8
  %175 = load ptr, ptr %4, align 8
  %176 = getelementptr inbounds nuw %struct.dbd_step_comp_msg, ptr %175, i32 0, i32 6
  store ptr %174, ptr %176, align 8
  br label %177

177:                                              ; preds = %169, %161
  %178 = load ptr, ptr %5, align 8
  %179 = getelementptr inbounds nuw %struct.step_record_t, ptr %178, i32 0, i32 39
  %180 = load i32, ptr %179, align 4
  %181 = trunc i32 %180 to i16
  %182 = load ptr, ptr %4, align 8
  %183 = getelementptr inbounds nuw %struct.dbd_step_comp_msg, ptr %182, i32 0, i32 9
  store i16 %181, ptr %183, align 8
  %184 = load ptr, ptr %4, align 8
  %185 = getelementptr inbounds nuw %struct.dbd_step_comp_msg, ptr %184, i32 0, i32 10
  %186 = load ptr, ptr %5, align 8
  %187 = getelementptr inbounds nuw %struct.step_record_t, ptr %186, i32 0, i32 40
  call void @llvm.memcpy.p0.p0.i64(ptr align 8 %185, ptr align 8 %187, i64 24, i1 false)
  %188 = load i32, ptr %6, align 4
  %189 = load ptr, ptr %4, align 8
  %190 = getelementptr inbounds nuw %struct.dbd_step_comp_msg, ptr %189, i32 0, i32 11
  store i32 %188, ptr %190, align 8
  store i32 0, ptr %3, align 4
  store i32 1, ptr %7, align 4
  br label %191

191:                                              ; preds = %177, %69
  call void @llvm.lifetime.end.p0(i64 4, ptr %6) #8
  %192 = load i32, ptr %3, align 4
  ret i32 %192
}