; Function Attrs: nounwind uwtable
define dso_local range(i32 -1, 1) i32 @as_build_step_comp_msg(ptr noundef writeonly captures(none) %0, ptr noundef readonly captures(none) %1) local_unnamed_addr #0 {
  %3 = getelementptr inbounds nuw i8, ptr %1, i64 280
  %4 = getelementptr inbounds nuw i8, ptr %1, i64 296
  %5 = load i32, ptr %4, align 8
  %6 = icmp eq i32 %5, -5
  br i1 %6, label %18, label %7

7:                                                ; preds = %2
  %8 = getelementptr inbounds nuw i8, ptr %1, i64 304
  %9 = load ptr, ptr %8, align 8
  %.not = icmp eq ptr %9, null
  br i1 %.not, label %13, label %10

10:                                               ; preds = %7
  %11 = getelementptr inbounds nuw i8, ptr %9, i64 72
  %12 = load i32, ptr %11, align 8
  %.not50 = icmp eq i32 %12, 0
  br i1 %.not50, label %13, label %18

13:                                               ; preds = %10, %7
  %14 = getelementptr inbounds nuw i8, ptr %1, i64 136
  %15 = load ptr, ptr %14, align 8
  %16 = getelementptr inbounds nuw i8, ptr %15, i64 992
  %17 = load i32, ptr %16, align 8
  br label %18

18:                                               ; preds = %10, %2, %13
  %.0 = phi i32 [ %17, %13 ], [ 1, %2 ], [ %12, %10 ]
  %19 = getelementptr inbounds nuw i8, ptr %1, i64 136
  %20 = load ptr, ptr %19, align 8
  %21 = getelementptr inbounds nuw i8, ptr %20, i64 192
  %22 = load i64, ptr %21, align 8
  %.not51 = icmp eq i64 %22, 0
  br i1 %.not51, label %23, label %34

23:                                               ; preds = %18
  %24 = getelementptr inbounds nuw i8, ptr %20, i64 216
  %25 = load ptr, ptr %24, align 8
  %.not52 = icmp eq ptr %25, null
  br i1 %.not52, label %29, label %26

26:                                               ; preds = %23
  %27 = getelementptr inbounds nuw i8, ptr %25, i64 464
  %28 = load i64, ptr %27, align 8
  %.not53 = icmp eq i64 %28, 0
  br i1 %.not53, label %29, label %34

29:                                               ; preds = %26, %23
  %30 = getelementptr inbounds nuw i8, ptr %20, i64 792
  %31 = load i64, ptr %30, align 8
  %.not54 = icmp eq i64 %31, 0
  br i1 %.not54, label %32, label %34

32:                                               ; preds = %29
  %33 = tail call i32 (ptr, ...) @slurm_error(ptr noundef nonnull @.str.66) #12
  br label %85

34:                                               ; preds = %29, %26, %18
  tail call void @llvm.memset.p0.i64(ptr noundef nonnull align 8 dereferenceable(112) %0, i8 0, i64 112, i1 false)
  %35 = load ptr, ptr %19, align 8
  %36 = getelementptr inbounds nuw i8, ptr %35, i64 64
  %37 = load i32, ptr %36, align 8
  store i32 %37, ptr %0, align 8
  %38 = load ptr, ptr %19, align 8
  %39 = getelementptr inbounds nuw i8, ptr %38, i64 192
  %40 = load i64, ptr %39, align 8
  %41 = getelementptr inbounds nuw i8, ptr %0, i64 8
  store i64 %40, ptr %41, align 8
  %42 = tail call i64 @time(ptr noundef null) #12
  %43 = getelementptr inbounds nuw i8, ptr %0, i64 16
  store i64 %42, ptr %43, align 8
  %44 = getelementptr inbounds nuw i8, ptr %1, i64 92
  %45 = load i32, ptr %44, align 4
  %46 = getelementptr inbounds nuw i8, ptr %0, i64 24
  store i32 %45, ptr %46, align 8
  %47 = getelementptr inbounds nuw i8, ptr %1, i64 144
  %48 = load ptr, ptr %47, align 8
  %49 = getelementptr inbounds nuw i8, ptr %0, i64 32
  store ptr %48, ptr %49, align 8
  %50 = getelementptr inbounds nuw i8, ptr %1, i64 240
  %51 = load i32, ptr %50, align 8
  %52 = getelementptr inbounds nuw i8, ptr %0, i64 56
  store i32 %51, ptr %52, align 8
  %53 = getelementptr inbounds nuw i8, ptr %1, i64 248
  %54 = load i64, ptr %53, align 8
  %55 = load ptr, ptr %19, align 8
  %56 = getelementptr inbounds nuw i8, ptr %55, i64 792
  %57 = load i64, ptr %56, align 8
  %spec.select = tail call i64 @llvm.smax.i64(i64 %54, i64 %57)
  %58 = getelementptr inbounds nuw i8, ptr %0, i64 64
  store i64 %spec.select, ptr %58, align 8
  %59 = load ptr, ptr %19, align 8
  %60 = getelementptr inbounds nuw i8, ptr %59, i64 792
  %61 = load i64, ptr %60, align 8
  %.not55 = icmp eq i64 %61, 0
  br i1 %.not55, label %62, label %.sink.split

62:                                               ; preds = %34
  %63 = getelementptr inbounds nuw i8, ptr %59, i64 216
  %64 = load ptr, ptr %63, align 8
  %.not56 = icmp eq ptr %64, null
  br i1 %.not56, label %69, label %65

65:                                               ; preds = %62
  %66 = getelementptr inbounds nuw i8, ptr %64, i64 464
  %67 = load i64, ptr %66, align 8
  br label %.sink.split

.sink.split:                                      ; preds = %34, %65
  %.sink = phi i64 [ %67, %65 ], [ %61, %34 ]
  %68 = getelementptr inbounds nuw i8, ptr %0, i64 40
  store i64 %.sink, ptr %68, align 8
  br label %69

69:                                               ; preds = %.sink.split, %62
  %70 = load ptr, ptr %19, align 8
  %71 = getelementptr inbounds nuw i8, ptr %70, i64 112
  %72 = load i64, ptr %71, align 8
  %73 = and i64 %72, 2048
  %.not57 = icmp eq i64 %73, 0
  br i1 %.not57, label %78, label %74

74:                                               ; preds = %69
  %75 = getelementptr inbounds nuw i8, ptr %70, i64 1080
  %76 = load ptr, ptr %75, align 8
  %77 = getelementptr inbounds nuw i8, ptr %0, i64 48
  store ptr %76, ptr %77, align 8
  br label %78

78:                                               ; preds = %74, %69
  %79 = getelementptr inbounds nuw i8, ptr %1, i64 276
  %80 = load i32, ptr %79, align 4
  %81 = trunc i32 %80 to i16
  %82 = getelementptr inbounds nuw i8, ptr %0, i64 72
  store i16 %81, ptr %82, align 8
  %83 = getelementptr inbounds nuw i8, ptr %0, i64 80
  tail call void @llvm.memcpy.p0.p0.i64(ptr noundef nonnull align 8 dereferenceable(24) %83, ptr noundef nonnull align 8 dereferenceable(24) %3, i64 24, i1 false)
  %84 = getelementptr inbounds nuw i8, ptr %0, i64 104
  store i32 %.0, ptr %84, align 8
  br label %85

85:                                               ; preds = %78, %32
  %.042 = phi i32 [ 0, %78 ], [ -1, %32 ]
  ret i32 %.042
}